target datalayout = "e-m:e-p270:32:32-p271:32:32-p272:64:64-i64:64-i128:128-f80:128-n8:16:32:64-S128"
target triple = "x86_64-pc-linux-gnu"

; Function Attrs: mustprogress nounwind uwtable
define noundef i32 @_Z24gmx_string_fullhash_funcPKcj(ptr noundef %0, i32 noundef %1) #1 {
  %3 = alloca ptr, align 8
  %4 = alloca i32, align 4
  %5 = alloca i8, align 1
  store ptr %0, ptr %3, align 8, !tbaa !4
  store i32 %1, ptr %4, align 4, !tbaa !9
  call void @llvm.lifetime.start.p0(i64 1, ptr %5) #13
  store i8 0, ptr %5, align 1, !tbaa !11
  br label %6

6:                                                ; preds = %12, %2
  %7 = load ptr, ptr %3, align 8, !tbaa !4
  %8 = getelementptr inbounds nuw i8, ptr %7, i32 1
  store ptr %8, ptr %3, align 8, !tbaa !4
  %9 = load i8, ptr %7, align 1, !tbaa !11
  store i8 %9, ptr %5, align 1, !tbaa !11
  %10 = sext i8 %9 to i32
  %11 = icmp ne i32 %10, 0
  br i1 %11, label %12, label %20

12:                                               ; preds = %6
  %13 = load i32, ptr %4, align 4, !tbaa !9
  %14 = shl i32 %13, 5
  %15 = load i32, ptr %4, align 4, !tbaa !9
  %16 = add i32 %14, %15
  %17 = load i8, ptr %5, align 1, !tbaa !11
  %18 = sext i8 %17 to i32
  %19 = xor i32 %16, %18
  store i32 %19, ptr %4, align 4, !tbaa !9
  br label %6, !llvm.loop !81

20:                                               ; preds = %6
  %21 = load i32, ptr %4, align 4, !tbaa !9
  call void @llvm.lifetime.end.p0(i64 1, ptr %5) #13
  ret i32 %21
}