; Function Attrs: mustprogress nofree norecurse nosync nounwind willreturn memory(argmem: read) uwtable
define noundef i32 @_Z24gmx_string_fullhash_funcPKcj(ptr noundef readonly captures(none) %0, i32 noundef %1) local_unnamed_addr #16 {
  %3 = load i8, ptr %0, align 1, !tbaa !4
  %.not6 = icmp eq i8 %3, 0
  br i1 %.not6, label %._crit_edge, label %.lr.ph

.lr.ph:                                           ; preds = %2, %.lr.ph
  %4 = phi i8 [ %9, %.lr.ph ], [ %3, %2 ]
  %.08 = phi i32 [ %8, %.lr.ph ], [ %1, %2 ]
  %.047 = phi ptr [ %6, %.lr.ph ], [ %0, %2 ]
  %5 = sext i8 %4 to i32
  %6 = getelementptr inbounds nuw i8, ptr %.047, i64 1
  %7 = mul i32 %.08, 33
  %8 = xor i32 %7, %5
  %9 = load i8, ptr %6, align 1, !tbaa !4
  %.not = icmp eq i8 %9, 0
  br i1 %.not, label %._crit_edge, label %.lr.ph, !llvm.loop !27

._crit_edge:                                      ; preds = %.lr.ph, %2
  %.0.lcssa = phi i32 [ %1, %2 ], [ %8, %.lr.ph ]
  ret i32 %.0.lcssa
}